target datalayout = "e-m:e-p270:32:32-p271:32:32-p272:64:64-i64:64-i128:128-f80:128-n8:16:32:64-S128"
target triple = "x86_64-pc-linux-gnu"

%struct.jv = type { i8, i8, i16, i32, %union.anon }
%union.anon = type { ptr }
%struct.jq_util_input_state = type { ptr, ptr, ptr, ptr, ptr, i32, i32, i32, %struct.jv, [4096 x i8], i64, %struct.jv, i64 }

; Function Attrs: nounwind uwtable
define dso_local void @jq_util_input_free(ptr noundef %0) #0 {
  %2 = alloca ptr, align 8
  %3 = alloca ptr, align 8
  %4 = alloca i32, align 4
  %5 = alloca i32, align 4
  store ptr %0, ptr %2, align 8, !tbaa !30
  call void @llvm.lifetime.start.p0(i64 8, ptr %3) #8
  %6 = load ptr, ptr %2, align 8, !tbaa !30
  %7 = load ptr, ptr %6, align 8, !tbaa !20
  store ptr %7, ptr %3, align 8, !tbaa !20
  %8 = load ptr, ptr %2, align 8, !tbaa !30
  store ptr null, ptr %8, align 8, !tbaa !20
  %9 = load ptr, ptr %3, align 8, !tbaa !20
  %10 = icmp eq ptr %9, null
  br i1 %10, label %11, label %12

11:                                               ; preds = %1
  store i32 1, ptr %4, align 4
  br label %57

12:                                               ; preds = %1
  %13 = load ptr, ptr %3, align 8, !tbaa !20
  %14 = getelementptr inbounds nuw %struct.jq_util_input_state, ptr %13, i32 0, i32 2
  %15 = load ptr, ptr %14, align 8, !tbaa !29
  %16 = icmp ne ptr %15, null
  br i1 %16, label %17, label %21

17:                                               ; preds = %12
  %18 = load ptr, ptr %3, align 8, !tbaa !20
  %19 = getelementptr inbounds nuw %struct.jq_util_input_state, ptr %18, i32 0, i32 2
  %20 = load ptr, ptr %19, align 8, !tbaa !29
  call void @jv_parser_free(ptr noundef %20)
  br label %21

21:                                               ; preds = %17, %12
  call void @llvm.lifetime.start.p0(i64 4, ptr %5) #8
  store i32 0, ptr %5, align 4, !tbaa !13
  br label %22

22:                                               ; preds = %37, %21
  %23 = load i32, ptr %5, align 4, !tbaa !13
  %24 = load ptr, ptr %3, align 8, !tbaa !20
  %25 = getelementptr inbounds nuw %struct.jq_util_input_state, ptr %24, i32 0, i32 5
  %26 = load i32, ptr %25, align 8, !tbaa !32
  %27 = icmp slt i32 %23, %26
  br i1 %27, label %29, label %28

28:                                               ; preds = %22
  store i32 2, ptr %4, align 4
  call void @llvm.lifetime.end.p0(i64 4, ptr %5) #8
  br label %40

29:                                               ; preds = %22
  %30 = load ptr, ptr %3, align 8, !tbaa !20
  %31 = getelementptr inbounds nuw %struct.jq_util_input_state, ptr %30, i32 0, i32 4
  %32 = load ptr, ptr %31, align 8, !tbaa !33
  %33 = load i32, ptr %5, align 4, !tbaa !13
  %34 = sext i32 %33 to i64
  %35 = getelementptr inbounds ptr, ptr %32, i64 %34
  %36 = load ptr, ptr %35, align 8, !tbaa !4
  call void @free(ptr noundef %36) #8
  br label %37

37:                                               ; preds = %29
  %38 = load i32, ptr %5, align 4, !tbaa !13
  %39 = add nsw i32 %38, 1
  store i32 %39, ptr %5, align 4, !tbaa !13
  br label %22, !llvm.loop !34

40:                                               ; preds = %28
  %41 = load ptr, ptr %3, align 8, !tbaa !20
  %42 = getelementptr inbounds nuw %struct.jq_util_input_state, ptr %41, i32 0, i32 4
  %43 = load ptr, ptr %42, align 8, !tbaa !33
  call void @free(ptr noundef %43) #8
  %44 = load ptr, ptr %3, align 8, !tbaa !20
  %45 = getelementptr inbounds nuw %struct.jq_util_input_state, ptr %44, i32 0, i32 8
  %46 = getelementptr inbounds nuw { i64, ptr }, ptr %45, i32 0, i32 0
  %47 = load i64, ptr %46, align 8
  %48 = getelementptr inbounds nuw { i64, ptr }, ptr %45, i32 0, i32 1
  %49 = load ptr, ptr %48, align 8
  call void @jv_free(i64 %47, ptr %49)
  %50 = load ptr, ptr %3, align 8, !tbaa !20
  %51 = getelementptr inbounds nuw %struct.jq_util_input_state, ptr %50, i32 0, i32 11
  %52 = getelementptr inbounds nuw { i64, ptr }, ptr %51, i32 0, i32 0
  %53 = load i64, ptr %52, align 8
  %54 = getelementptr inbounds nuw { i64, ptr }, ptr %51, i32 0, i32 1
  %55 = load ptr, ptr %54, align 8
  call void @jv_free(i64 %53, ptr %55)
  %56 = load ptr, ptr %3, align 8, !tbaa !20
  call void @jv_mem_free(ptr noundef %56)
  store i32 0, ptr %4, align 4
  br label %57

57:                                               ; preds = %40, %11
  call void @llvm.lifetime.end.p0(i64 8, ptr %3) #8
  %58 = load i32, ptr %4, align 4
  switch i32 %58, label %60 [
    i32 0, label %59
    i32 1, label %59
  ]

59:                                               ; preds = %57, %57
  ret void

60:                                               ; preds = %57
  unreachable
}