; Function Attrs: nounwind uwtable
define dso_local void @jq_util_input_free(ptr noundef captures(none) %0) local_unnamed_addr #0 {
  %2 = load ptr, ptr %0, align 8, !tbaa !20
  store ptr null, ptr %0, align 8, !tbaa !20
  %3 = icmp eq ptr %2, null
  br i1 %3, label %30, label %4

4:                                                ; preds = %1
  %5 = getelementptr inbounds nuw i8, ptr %2, i64 16
  %6 = load ptr, ptr %5, align 8, !tbaa !19
  %.not = icmp eq ptr %6, null
  br i1 %.not, label %8, label %7

7:                                                ; preds = %4
  tail call void @jv_parser_free(ptr noundef nonnull %6) #13
  br label %8

8:                                                ; preds = %7, %4
  %9 = getelementptr inbounds nuw i8, ptr %2, i64 40
  %10 = load i32, ptr %9, align 8, !tbaa !22
  %11 = icmp sgt i32 %10, 0
  br i1 %11, label %.lr.ph, label %._crit_edge

.lr.ph:                                           ; preds = %8
  %12 = getelementptr inbounds nuw i8, ptr %2, i64 32
  br label %23

._crit_edge:                                      ; preds = %23, %8
  %13 = getelementptr inbounds nuw i8, ptr %2, i64 32
  %14 = load ptr, ptr %13, align 8, !tbaa !23
  tail call void @free(ptr noundef %14) #13
  %15 = getelementptr inbounds nuw i8, ptr %2, i64 56
  %16 = load i64, ptr %15, align 8
  %17 = getelementptr inbounds nuw i8, ptr %2, i64 64
  %18 = load ptr, ptr %17, align 8
  tail call void @jv_free(i64 %16, ptr %18) #13
  %19 = getelementptr inbounds nuw i8, ptr %2, i64 4176
  %20 = load i64, ptr %19, align 8
  %21 = getelementptr inbounds nuw i8, ptr %2, i64 4184
  %22 = load ptr, ptr %21, align 8
  tail call void @jv_free(i64 %20, ptr %22) #13
  tail call void @jv_mem_free(ptr noundef nonnull %2) #13
  br label %30

23:                                               ; preds = %.lr.ph, %23
  %indvars.iv = phi i64 [ 0, %.lr.ph ], [ %indvars.iv.next, %23 ]
  %24 = load ptr, ptr %12, align 8, !tbaa !23
  %25 = getelementptr inbounds nuw ptr, ptr %24, i64 %indvars.iv
  %26 = load ptr, ptr %25, align 8, !tbaa !24
  tail call void @free(ptr noundef %26) #13
  %indvars.iv.next = add nuw nsw i64 %indvars.iv, 1
  %27 = load i32, ptr %9, align 8, !tbaa !22
  %28 = sext i32 %27 to i64
  %29 = icmp slt i64 %indvars.iv.next, %28
  br i1 %29, label %23, label %._crit_edge, !llvm.loop !26

30:                                               ; preds = %1, %._crit_edge
  ret void
}